Certificate:
    Data:
        Version: 1 (0x0)
        Serial Number: 1 (0x1)
    Signature Algorithm: sha256WithRSAEncryption
        Issuer: C=DE, ST=Deutschland, L=Berlin, O=Brandenburg, OU=Havre, CN=DePaix/emailAddress=Alka@lol.eu
        Validity
            Not Before: May 11 23:07:37 2016 GMT
            Not After : May 11 23:07:37 2017 GMT
        Subject: C=FR, ST=Michel, L=Leblanc, O=Iridium, OU=Sekator, CN=Alkanooor/emailAddress=perdsPasLeNord@nord.com
        Subject Public Key Info:
            Public Key Algorithm: rsaEncryption
                Public-Key: (1024 bit)
                Modulus:
                    00:e3:04:42:22:33:ea:70:9a:a5:4d:d9:af:45:f9:
                    19:5f:23:ca:d4:6e:ca:f1:57:ac:89:63:13:04:5b:
                    b2:e4:1c:2a:e1:50:6d:e4:19:c8:d5:e9:4a:02:23:
                    c7:44:5a:53:52:90:49:01:31:d9:52:69:50:8e:ef:
                    42:4d:e2:91:1a:d6:5a:fa:d9:4d:43:bf:f3:ef:48:
                    6f:02:d4:73:a2:2a:a8:26:cc:ee:8a:2d:25:33:e0:
                    bf:27:60:e3:71:9b:97:81:7b:47:51:fa:02:68:ba:
                    17:cc:31:48:4e:4e:9a:ff:9d:2d:50:3d:bb:c9:ff:
                    b5:67:cc:8b:ac:00:a0:b0:71
                Exponent: 65537 (0x10001)
    Signature Algorithm: sha256WithRSAEncryption
         62:eb:76:92:53:29:40:ae:bc:8e:56:5b:98:ba:54:ee:d6:aa:
         4e:6e:26:cb:92:e6:d1:7d:86:b6:f4:3c:26:ce:a0:b0:89:53:
         4f:3a:72:d3:1b:6d:e2:52:08:51:2e:b7:3e:03:5c:11:d4:16:
         4c:8a:72:f9:87:14:bb:b5:a9:35:2b:92:18:6b:8c:76:9c:60:
         69:ff:3b:bf:7b:96:f0:2b:f6:81:70:12:66:37:f5:8f:16:e7:
         07:14:2b:65:cd:cc:23:1e:4d:5d:6b:9d:29:1d:f6:e2:76:63:
         97:37:9d:49:89:36:85:13:f5:70:16:b4:b3:45:fd:cc:2b:63:
         51:0d:19:02:01:33:ae:2b:71:63:d4:62:7c:2c:23:4a:da:af:
         fd:a4:38:d2:84:9e:89:37:9f:60:3a:5e:38:c8:29:b6:21:5b:
         97:af:f2:fc:ad:28:1e:77:1c:e4:e2:e0:28:36:66:de:df:1e:
         63:b2:77:5e:26:90:dd:cc:33:0f:d3:25:8f:af:dd:48:82:45:
         15:97:7e:e7:44:71:a0:7b:ef:b6:88:08:16:0f:61:5e:80:da:
         b3:9f:e2:5f:4b:bf:7b:39:1f:fb:68:bb:69:2c:fc:a9:30:0f:
         18:92:22:ba:f8:e4:cc:f1:13:9e:63:98:75:0e:31:b7:24:0b:
         b0:25:41:e2
-----BEGIN CERTIFICATE-----
MIIDCTCCAfECAQEwDQYJKoZIhvcNAQELBQAwgYcxCzAJBgNVBAYTAkRFMRQwEgYD
VQQIDAtEZXV0c2NobGFuZDEPMA0GA1UEBwwGQmVybGluMRQwEgYDVQQKDAtCcmFu
ZGVuYnVyZzEOMAwGA1UECwwFSGF2cmUxDzANBgNVBAMMBkRlUGFpeDEaMBgGCSqG
SIb3DQEJARYLQWxrYUBsb2wuZXUwHhcNMTYwNTExMjMwNzM3WhcNMTcwNTExMjMw
NzM3WjCBkDELMAkGA1UEBhMCRlIxDzANBgNVBAgMBk1pY2hlbDEQMA4GA1UEBwwH
TGVibGFuYzEQMA4GA1UECgwHSXJpZGl1bTEQMA4GA1UECwwHU2VrYXRvcjESMBAG
A1UEAwwJQWxrYW5vb29yMSYwJAYJKoZIhvcNAQkBFhdwZXJkc1Bhc0xlTm9yZEBu
b3JkLmNvbTCBnzANBgkqhkiG9w0BAQEFAAOBjQAwgYkCgYEA4wRCIjPqcJqlTdmv
RfkZXyPK1G7K8VesiWMTBFuy5Bwq4VBt5BnI1elKAiPHRFpTUpBJATHZUmlQju9C
TeKRGtZa+tlNQ7/z70hvAtRzoiqoJszuii0lM+C/J2DjcZuXgXtHUfoCaLoXzDFI
Tk6a/50tUD27yf+1Z8yLrACgsHECAwEAATANBgkqhkiG9w0BAQsFAAOCAQEAYut2
klMpQK68jlZbmLpU7taqTm4my5Lm0X2GtvQ8Js6gsIlTTzpy0xtt4lIIUS63PgNc
EdQWTIpy+YcUu7WpNSuSGGuMdpxgaf87v3uW8Cv2gXASZjf1jxbnBxQrZc3MIx5N
XWudKR324nZjlzedSYk2hRP1cBa0s0X9zCtjUQ0ZAgEzritxY9RifCwjStqv/aQ4
0oSeiTefYDpeOMgptiFbl6/y/K0oHncc5OLgKDZm3t8eY7J3XiaQ3cwzD9Mlj6/d
SIJFFZd+50RxoHvvtogIFg9hXoDas5/iX0u/ezkf+2i7aSz8qTAPGJIiuvjkzPET
nmOYdQ4xtyQLsCVB4g==
-----END CERTIFICATE-----
